target datalayout = "e-m:e-p270:32:32-p271:32:32-p272:64:64-i64:64-i128:128-f80:128-n8:16:32:64-S128"
target triple = "x86_64-pc-linux-gnu"

%struct.grpc_slice = type { ptr, %"union.grpc_slice::grpc_slice_data" }
%"union.grpc_slice::grpc_slice_data" = type { %"struct.grpc_slice::grpc_slice_data::grpc_slice_refcounted", [8 x i8] }
%"struct.grpc_slice::grpc_slice_data::grpc_slice_refcounted" = type { i64, ptr }
%"struct.grpc_slice::grpc_slice_data::grpc_slice_inlined" = type { i8, [23 x i8] }

; Function Attrs: mustprogress nounwind uwtable
define i32 @grpc_slice_str_cmp(ptr noundef byval(%struct.grpc_slice) align 8 %0, ptr noundef %1) #7 {
  %3 = alloca i32, align 4
  %4 = alloca ptr, align 8
  %5 = alloca i64, align 8
  %6 = alloca i32, align 4
  %7 = alloca i32, align 4
  store ptr %1, ptr %4, align 8, !tbaa !10
  call void @llvm.lifetime.start.p0(i64 8, ptr %5) #3
  %8 = load ptr, ptr %4, align 8, !tbaa !10
  %9 = call i64 @strlen(ptr noundef %8) #19
  store i64 %9, ptr %5, align 8, !tbaa !12
  call void @llvm.lifetime.start.p0(i64 4, ptr %6) #3
  %10 = getelementptr inbounds nuw %struct.grpc_slice, ptr %0, i32 0, i32 0
  %11 = load ptr, ptr %10, align 8, !tbaa !3
  %12 = icmp ne ptr %11, null
  br i1 %12, label %13, label %17

13:                                               ; preds = %2
  %14 = getelementptr inbounds nuw %struct.grpc_slice, ptr %0, i32 0, i32 1
  %15 = getelementptr inbounds nuw %"struct.grpc_slice::grpc_slice_data::grpc_slice_refcounted", ptr %14, i32 0, i32 0
  %16 = load i64, ptr %15, align 8, !tbaa !9
  br label %22

17:                                               ; preds = %2
  %18 = getelementptr inbounds nuw %struct.grpc_slice, ptr %0, i32 0, i32 1
  %19 = getelementptr inbounds nuw %"struct.grpc_slice::grpc_slice_data::grpc_slice_inlined", ptr %18, i32 0, i32 0
  %20 = load i8, ptr %19, align 8, !tbaa !9
  %21 = zext i8 %20 to i64
  br label %22

22:                                               ; preds = %17, %13
  %23 = phi i64 [ %16, %13 ], [ %21, %17 ]
  %24 = load i64, ptr %5, align 8, !tbaa !12
  %25 = sub i64 %23, %24
  %26 = trunc i64 %25 to i32
  store i32 %26, ptr %6, align 4, !tbaa !54
  %27 = load i32, ptr %6, align 4, !tbaa !54
  %28 = icmp ne i32 %27, 0
  br i1 %28, label %29, label %31

29:                                               ; preds = %22
  %30 = load i32, ptr %6, align 4, !tbaa !54
  store i32 %30, ptr %3, align 4
  store i32 1, ptr %7, align 4
  br label %48

31:                                               ; preds = %22
  %32 = getelementptr inbounds nuw %struct.grpc_slice, ptr %0, i32 0, i32 0
  %33 = load ptr, ptr %32, align 8, !tbaa !3
  %34 = icmp ne ptr %33, null
  br i1 %34, label %35, label %39

35:                                               ; preds = %31
  %36 = getelementptr inbounds nuw %struct.grpc_slice, ptr %0, i32 0, i32 1
  %37 = getelementptr inbounds nuw %"struct.grpc_slice::grpc_slice_data::grpc_slice_refcounted", ptr %36, i32 0, i32 1
  %38 = load ptr, ptr %37, align 8, !tbaa !9
  br label %43

39:                                               ; preds = %31
  %40 = getelementptr inbounds nuw %struct.grpc_slice, ptr %0, i32 0, i32 1
  %41 = getelementptr inbounds nuw %"struct.grpc_slice::grpc_slice_data::grpc_slice_inlined", ptr %40, i32 0, i32 1
  %42 = getelementptr inbounds [23 x i8], ptr %41, i64 0, i64 0
  br label %43

43:                                               ; preds = %39, %35
  %44 = phi ptr [ %38, %35 ], [ %42, %39 ]
  %45 = load ptr, ptr %4, align 8, !tbaa !10
  %46 = load i64, ptr %5, align 8, !tbaa !12
  %47 = call i32 @memcmp(ptr noundef %44, ptr noundef %45, i64 noundef %46) #19
  store i32 %47, ptr %3, align 4
  store i32 1, ptr %7, align 4
  br label %48

48:                                               ; preds = %43, %29
  call void @llvm.lifetime.end.p0(i64 4, ptr %6) #3
  call void @llvm.lifetime.end.p0(i64 8, ptr %5) #3
  %49 = load i32, ptr %3, align 4
  ret i32 %49
}