; Function Attrs: mustprogress nofree nounwind willreturn memory(read, inaccessiblemem: none) uwtable
define i32 @grpc_slice_str_cmp(ptr noundef readonly byval(%struct.grpc_slice) align 8 captures(none) %0, ptr noundef readonly captures(none) %1) local_unnamed_addr #13 {
  %3 = tail call i64 @strlen(ptr noundef nonnull dereferenceable(1) %1) #29
  %4 = load ptr, ptr %0, align 8, !tbaa !3
  %.not = icmp eq ptr %4, null
  %5 = getelementptr inbounds nuw i8, ptr %0, i64 8
  %6 = load i64, ptr %5, align 8
  %7 = and i64 %6, 255
  %8 = select i1 %.not, i64 %7, i64 %6
  %9 = sub i64 %8, %3
  %10 = trunc i64 %9 to i32
  %.not7 = icmp eq i32 %10, 0
  br i1 %.not7, label %11, label %17

11:                                               ; preds = %2
  %12 = getelementptr inbounds nuw i8, ptr %0, i64 16
  %13 = load ptr, ptr %12, align 8
  %14 = getelementptr inbounds nuw i8, ptr %0, i64 9
  %15 = select i1 %.not, ptr %14, ptr %13
  %16 = call i32 @memcmp(ptr noundef %15, ptr noundef nonnull %1, i64 noundef %3) #29
  br label %17

17:                                               ; preds = %2, %11
  %.0 = phi i32 [ %16, %11 ], [ %10, %2 ]
  ret i32 %.0
}